target datalayout = "e-m:e-p270:32:32-p271:32:32-p272:64:64-i64:64-i128:128-f80:128-n8:16:32:64-S128"
target triple = "x86_64-pc-linux-gnu"

%class.int3 = type { i32, i32, i32 }
%class.btHullTriangle = type { %class.int3, %class.int3, i32, i32, float }
%class.HullLibrary = type { %class.btAlignedObjectArray.4, %class.btAlignedObjectArray.6 }
%class.btAlignedObjectArray.4 = type <{ [4 x i8], i32, i32, [4 x i8], ptr, i8, [7 x i8] }>
%class.btAlignedObjectArray.6 = type <{ [4 x i8], i32, i32, [4 x i8], ptr, i8, [7 x i8] }>

; Function Attrs: inlinehint mustprogress nounwind uwtable
define linkonce_odr dso_local noundef nonnull align 8 dereferenceable(8) ptr @_ZN20btAlignedObjectArrayIP14btHullTriangleEixEi(ptr noundef nonnull align 8 dereferenceable(25) %0, i32 noundef %1) #5 comdat align 2 {
  %3 = alloca ptr, align 8
  %4 = alloca i32, align 4
  store ptr %0, ptr %3, align 8, !tbaa !70
  store i32 %1, ptr %4, align 4, !tbaa !9
  %5 = load ptr, ptr %3, align 8
  %6 = getelementptr inbounds nuw %class.btAlignedObjectArray.4, ptr %5, i32 0, i32 4
  %7 = load ptr, ptr %6, align 8, !tbaa !72
  %8 = load i32, ptr %4, align 4, !tbaa !9
  %9 = sext i32 %8 to i64
  %10 = getelementptr inbounds ptr, ptr %7, i64 %9
  ret ptr %10
}

; Function Attrs: inlinehint mustprogress nounwind uwtable
define linkonce_odr dso_local noundef i32 @_ZNK20btAlignedObjectArrayIP14btHullTriangleE4sizeEv(ptr noundef nonnull align 8 dereferenceable(25) %0) #5 comdat align 2 {
  %2 = alloca ptr, align 8
  store ptr %0, ptr %2, align 8, !tbaa !70
  %3 = load ptr, ptr %2, align 8
  %4 = getelementptr inbounds nuw %class.btAlignedObjectArray.4, ptr %3, i32 0, i32 1
  %5 = load i32, ptr %4, align 4, !tbaa !83
  ret i32 %5
}

; Function Attrs: mustprogress uwtable
define dso_local noundef ptr @_ZN11HullLibrary10extrudableEf(ptr noundef nonnull align 8 dereferenceable(64) %0, float noundef %1) #8 align 2 {
  %3 = alloca ptr, align 8
  %4 = alloca float, align 4
  %5 = alloca i32, align 4
  %6 = alloca ptr, align 8
  store ptr %0, ptr %3, align 8, !tbaa !67
  store float %1, ptr %4, align 4, !tbaa !15
  %7 = load ptr, ptr %3, align 8
  call void @llvm.lifetime.start.p0(i64 4, ptr %5) #14
  call void @llvm.lifetime.start.p0(i64 8, ptr %6) #14
  store ptr null, ptr %6, align 8, !tbaa !64
  store i32 0, ptr %5, align 4, !tbaa !9
  br label %8

8:                                                ; preds = %39, %2
  %9 = load i32, ptr %5, align 4, !tbaa !9
  %10 = getelementptr inbounds nuw %class.HullLibrary, ptr %7, i32 0, i32 0
  %11 = call noundef i32 @_ZNK20btAlignedObjectArrayIP14btHullTriangleE4sizeEv(ptr noundef nonnull align 8 dereferenceable(25) %10)
  %12 = icmp slt i32 %9, %11
  br i1 %12, label %13, label %42

13:                                               ; preds = %8
  %14 = load ptr, ptr %6, align 8, !tbaa !64
  %15 = icmp ne ptr %14, null
  br i1 %15, label %16, label %33

16:                                               ; preds = %13
  %17 = getelementptr inbounds nuw %class.HullLibrary, ptr %7, i32 0, i32 0
  %18 = load i32, ptr %5, align 4, !tbaa !9
  %19 = call noundef nonnull align 8 dereferenceable(8) ptr @_ZN20btAlignedObjectArrayIP14btHullTriangleEixEi(ptr noundef nonnull align 8 dereferenceable(25) %17, i32 noundef %18)
  %20 = load ptr, ptr %19, align 8, !tbaa !64
  %21 = icmp ne ptr %20, null
  br i1 %21, label %22, label %38

22:                                               ; preds = %16
  %23 = load ptr, ptr %6, align 8, !tbaa !64
  %24 = getelementptr inbounds nuw %class.btHullTriangle, ptr %23, i32 0, i32 4
  %25 = load float, ptr %24, align 4, !tbaa !82
  %26 = getelementptr inbounds nuw %class.HullLibrary, ptr %7, i32 0, i32 0
  %27 = load i32, ptr %5, align 4, !tbaa !9
  %28 = call noundef nonnull align 8 dereferenceable(8) ptr @_ZN20btAlignedObjectArrayIP14btHullTriangleEixEi(ptr noundef nonnull align 8 dereferenceable(25) %26, i32 noundef %27)
  %29 = load ptr, ptr %28, align 8, !tbaa !64
  %30 = getelementptr inbounds nuw %class.btHullTriangle, ptr %29, i32 0, i32 4
  %31 = load float, ptr %30, align 4, !tbaa !82
  %32 = fcmp olt float %25, %31
  br i1 %32, label %33, label %38

33:                                               ; preds = %22, %13
  %34 = getelementptr inbounds nuw %class.HullLibrary, ptr %7, i32 0, i32 0
  %35 = load i32, ptr %5, align 4, !tbaa !9
  %36 = call noundef nonnull align 8 dereferenceable(8) ptr @_ZN20btAlignedObjectArrayIP14btHullTriangleEixEi(ptr noundef nonnull align 8 dereferenceable(25) %34, i32 noundef %35)
  %37 = load ptr, ptr %36, align 8, !tbaa !64
  store ptr %37, ptr %6, align 8, !tbaa !64
  br label %38

38:                                               ; preds = %33, %22, %16
  br label %39

39:                                               ; preds = %38
  %40 = load i32, ptr %5, align 4, !tbaa !9
  %41 = add nsw i32 %40, 1
  store i32 %41, ptr %5, align 4, !tbaa !9
  br label %8, !llvm.loop !89

42:                                               ; preds = %8
  %43 = load ptr, ptr %6, align 8, !tbaa !64
  %44 = getelementptr inbounds nuw %class.btHullTriangle, ptr %43, i32 0, i32 4
  %45 = load float, ptr %44, align 4, !tbaa !82
  %46 = load float, ptr %4, align 4, !tbaa !15
  %47 = fcmp ogt float %45, %46
  br i1 %47, label %48, label %50

48:                                               ; preds = %42
  %49 = load ptr, ptr %6, align 8, !tbaa !64
  br label %51

50:                                               ; preds = %42
  br label %51

51:                                               ; preds = %50, %48
  %52 = phi ptr [ %49, %48 ], [ null, %50 ]
  call void @llvm.lifetime.end.p0(i64 8, ptr %6) #14
  call void @llvm.lifetime.end.p0(i64 4, ptr %5) #14
  ret ptr %52
}