; Function Attrs: mustprogress nofree norecurse nosync nounwind memory(read, inaccessiblemem: write) uwtable
define dso_local noundef ptr @_ZN11HullLibrary10extrudableEf(ptr noundef nonnull readonly align 8 captures(none) dereferenceable(64) %0, float noundef %1) local_unnamed_addr #11 align 2 {
.lr.ph:
  %2 = getelementptr inbounds nuw i8, ptr %0, i64 4
  %3 = load i32, ptr %2, align 4, !tbaa !66
  %4 = icmp sgt i32 %3, 0
  tail call void @llvm.assume(i1 %4)
  %5 = getelementptr inbounds nuw i8, ptr %0, i64 16
  %6 = load ptr, ptr %5, align 8
  %wide.trip.count = zext nneg i32 %3 to i64
  br label %7

7:                                                ; preds = %.lr.ph, %._crit_edge15
  %indvars.iv = phi i64 [ 0, %.lr.ph ], [ %indvars.iv.next, %._crit_edge15 ]
  %.013 = phi ptr [ null, %.lr.ph ], [ %.1, %._crit_edge15 ]
  %.not = icmp eq ptr %.013, null
  %.phi.trans.insert = getelementptr inbounds nuw ptr, ptr %6, i64 %indvars.iv
  %.pre = load ptr, ptr %.phi.trans.insert, align 8, !tbaa !55
  br i1 %.not, label %._crit_edge15, label %8

8:                                                ; preds = %7
  %.not11 = icmp eq ptr %.pre, null
  br i1 %.not11, label %._crit_edge15, label %9

9:                                                ; preds = %8
  %10 = getelementptr inbounds nuw i8, ptr %.013, i64 32
  %11 = load float, ptr %10, align 4, !tbaa !65
  %12 = getelementptr inbounds nuw i8, ptr %.pre, i64 32
  %13 = load float, ptr %12, align 4, !tbaa !65
  %14 = fcmp olt float %11, %13
  br i1 %14, label %15, label %._crit_edge15

15:                                               ; preds = %9
  br label %._crit_edge15

._crit_edge15:                                    ; preds = %7, %8, %9, %15
  %.1 = phi ptr [ %.013, %9 ], [ %.013, %8 ], [ %.pre, %15 ], [ %.pre, %7 ]
  %indvars.iv.next = add nuw nsw i64 %indvars.iv, 1
  %exitcond.not = icmp eq i64 %indvars.iv.next, %wide.trip.count
  br i1 %exitcond.not, label %._crit_edge, label %7, !llvm.loop !70

._crit_edge:                                      ; preds = %._crit_edge15
  %16 = getelementptr inbounds nuw i8, ptr %.1, i64 32
  %17 = load float, ptr %16, align 4, !tbaa !65
  %18 = fcmp ogt float %17, %1
  %19 = select i1 %18, ptr %.1, ptr null
  ret ptr %19
}